target datalayout = "e-m:e-p270:32:32-p271:32:32-p272:64:64-i64:64-i128:128-f80:128-n8:16:32:64-S128"
target triple = "x86_64-pc-linux-gnu"

; Function Attrs: alwaysinline nounwind willreturn memory(none) uwtable
define internal i32 @av_clip_uintp2_c(i32 noundef %0, i32 noundef %1) #6 {
  %3 = alloca i32, align 4
  %4 = alloca i32, align 4
  %5 = alloca i32, align 4
  store i32 %0, ptr %4, align 4, !tbaa !9
  store i32 %1, ptr %5, align 4, !tbaa !9
  %6 = load i32, ptr %4, align 4, !tbaa !9
  %7 = load i32, ptr %5, align 4, !tbaa !9
  %8 = shl i32 1, %7
  %9 = sub i32 %8, 1
  %10 = xor i32 %9, -1
  %11 = and i32 %6, %10
  %12 = icmp ne i32 %11, 0
  br i1 %12, label %13, label %21

13:                                               ; preds = %2
  %14 = load i32, ptr %4, align 4, !tbaa !9
  %15 = xor i32 %14, -1
  %16 = ashr i32 %15, 31
  %17 = load i32, ptr %5, align 4, !tbaa !9
  %18 = shl i32 1, %17
  %19 = sub i32 %18, 1
  %20 = and i32 %16, %19
  store i32 %20, ptr %3, align 4
  br label %23

21:                                               ; preds = %2
  %22 = load i32, ptr %4, align 4, !tbaa !9
  store i32 %22, ptr %3, align 4
  br label %23

23:                                               ; preds = %21, %13
  %24 = load i32, ptr %3, align 4
  ret i32 %24
}

; Function Attrs: nounwind uwtable
define internal void @biweight_h264_pixels2_14_c(ptr noundef %0, ptr noundef %1, i64 noundef %2, i32 noundef %3, i32 noundef %4, i32 noundef %5, i32 noundef %6, i32 noundef %7) #1 {
  %9 = alloca ptr, align 8
  %10 = alloca ptr, align 8
  %11 = alloca i64, align 8
  %12 = alloca i32, align 4
  %13 = alloca i32, align 4
  %14 = alloca i32, align 4
  %15 = alloca i32, align 4
  %16 = alloca i32, align 4
  %17 = alloca i32, align 4
  %18 = alloca ptr, align 8
  %19 = alloca ptr, align 8
  store ptr %0, ptr %9, align 8, !tbaa !39
  store ptr %1, ptr %10, align 8, !tbaa !39
  store i64 %2, ptr %11, align 8, !tbaa !53
  store i32 %3, ptr %12, align 4, !tbaa !9
  store i32 %4, ptr %13, align 4, !tbaa !9
  store i32 %5, ptr %14, align 4, !tbaa !9
  store i32 %6, ptr %15, align 4, !tbaa !9
  store i32 %7, ptr %16, align 4, !tbaa !9
  call void @llvm.lifetime.start.p0(i64 4, ptr %17) #9
  call void @llvm.lifetime.start.p0(i64 8, ptr %18) #9
  %20 = load ptr, ptr %9, align 8, !tbaa !39
  store ptr %20, ptr %18, align 8, !tbaa !41
  call void @llvm.lifetime.start.p0(i64 8, ptr %19) #9
  %21 = load ptr, ptr %10, align 8, !tbaa !39
  store ptr %21, ptr %19, align 8, !tbaa !41
  %22 = load i64, ptr %11, align 8, !tbaa !53
  %23 = ashr i64 %22, 1
  store i64 %23, ptr %11, align 8, !tbaa !53
  %24 = load i32, ptr %16, align 4, !tbaa !9
  %25 = shl i32 %24, 6
  store i32 %25, ptr %16, align 4, !tbaa !9
  %26 = load i32, ptr %16, align 4, !tbaa !9
  %27 = add nsw i32 %26, 1
  %28 = or i32 %27, 1
  %29 = load i32, ptr %13, align 4, !tbaa !9
  %30 = shl i32 %28, %29
  store i32 %30, ptr %16, align 4, !tbaa !9
  store i32 0, ptr %17, align 4, !tbaa !9
  br label %31

31:                                               ; preds = %80, %8
  %32 = load i32, ptr %17, align 4, !tbaa !9
  %33 = load i32, ptr %12, align 4, !tbaa !9
  %34 = icmp slt i32 %32, %33
  br i1 %34, label %35, label %89

35:                                               ; preds = %31
  %36 = load ptr, ptr %19, align 8, !tbaa !41
  %37 = getelementptr inbounds i16, ptr %36, i64 0
  %38 = load i16, ptr %37, align 2, !tbaa !45
  %39 = zext i16 %38 to i32
  %40 = load i32, ptr %15, align 4, !tbaa !9
  %41 = mul nsw i32 %39, %40
  %42 = load ptr, ptr %18, align 8, !tbaa !41
  %43 = getelementptr inbounds i16, ptr %42, i64 0
  %44 = load i16, ptr %43, align 2, !tbaa !45
  %45 = zext i16 %44 to i32
  %46 = load i32, ptr %14, align 4, !tbaa !9
  %47 = mul nsw i32 %45, %46
  %48 = add nsw i32 %41, %47
  %49 = load i32, ptr %16, align 4, !tbaa !9
  %50 = add nsw i32 %48, %49
  %51 = load i32, ptr %13, align 4, !tbaa !9
  %52 = add nsw i32 %51, 1
  %53 = ashr i32 %50, %52
  %54 = call i32 @av_clip_uintp2_c(i32 noundef %53, i32 noundef 14) #10
  %55 = trunc i32 %54 to i16
  %56 = load ptr, ptr %18, align 8, !tbaa !41
  %57 = getelementptr inbounds i16, ptr %56, i64 0
  store i16 %55, ptr %57, align 2, !tbaa !45
  %58 = load ptr, ptr %19, align 8, !tbaa !41
  %59 = getelementptr inbounds i16, ptr %58, i64 1
  %60 = load i16, ptr %59, align 2, !tbaa !45
  %61 = zext i16 %60 to i32
  %62 = load i32, ptr %15, align 4, !tbaa !9
  %63 = mul nsw i32 %61, %62
  %64 = load ptr, ptr %18, align 8, !tbaa !41
  %65 = getelementptr inbounds i16, ptr %64, i64 1
  %66 = load i16, ptr %65, align 2, !tbaa !45
  %67 = zext i16 %66 to i32
  %68 = load i32, ptr %14, align 4, !tbaa !9
  %69 = mul nsw i32 %67, %68
  %70 = add nsw i32 %63, %69
  %71 = load i32, ptr %16, align 4, !tbaa !9
  %72 = add nsw i32 %70, %71
  %73 = load i32, ptr %13, align 4, !tbaa !9
  %74 = add nsw i32 %73, 1
  %75 = ashr i32 %72, %74
  %76 = call i32 @av_clip_uintp2_c(i32 noundef %75, i32 noundef 14) #10
  %77 = trunc i32 %76 to i16
  %78 = load ptr, ptr %18, align 8, !tbaa !41
  %79 = getelementptr inbounds i16, ptr %78, i64 1
  store i16 %77, ptr %79, align 2, !tbaa !45
  br label %80

80:                                               ; preds = %35
  %81 = load i32, ptr %17, align 4, !tbaa !9
  %82 = add nsw i32 %81, 1
  store i32 %82, ptr %17, align 4, !tbaa !9
  %83 = load i64, ptr %11, align 8, !tbaa !53
  %84 = load ptr, ptr %18, align 8, !tbaa !41
  %85 = getelementptr inbounds i16, ptr %84, i64 %83
  store ptr %85, ptr %18, align 8, !tbaa !41
  %86 = load i64, ptr %11, align 8, !tbaa !53
  %87 = load ptr, ptr %19, align 8, !tbaa !41
  %88 = getelementptr inbounds i16, ptr %87, i64 %86
  store ptr %88, ptr %19, align 8, !tbaa !41
  br label %31, !llvm.loop !86

89:                                               ; preds = %31
  call void @llvm.lifetime.end.p0(i64 8, ptr %19) #9
  call void @llvm.lifetime.end.p0(i64 8, ptr %18) #9
  call void @llvm.lifetime.end.p0(i64 4, ptr %17) #9
  ret void
}